target datalayout = "e-m:e-p270:32:32-p271:32:32-p272:64:64-i64:64-i128:128-f80:128-n8:16:32:64-S128"
target triple = "x86_64-pc-linux-gnu"

%struct.AVFormatContext = type { ptr, ptr, ptr, ptr, ptr, i32, i32, ptr, i32, ptr, i32, ptr, ptr, i64, i64, i64, i32, i32, i32, i64, i64, ptr, i32, i32, ptr, i32, i32, i32, i32, ptr, i64, i32, i32, %struct.AVIOInterruptCB, i32, i32, i32, i32, i64, i32, i32, i32, i32, i32, i32, i32, i32, i32, i32, i32, i32, i64, i32, i32, i32, i32, i32, ptr, ptr, ptr, ptr, i32, ptr, ptr, ptr, ptr, i32, ptr, ptr, i64, ptr, ptr, ptr, i64 }
%struct.AVIOInterruptCB = type { ptr, ptr }
%struct.SWFDecContext = type { i32, i32, ptr, ptr, ptr, %struct.z_stream_s }
%struct.z_stream_s = type { ptr, i32, i64, ptr, i32, i64, ptr, ptr, ptr, ptr, ptr, i32, i64, i64 }
%struct.AVIOContext = type { ptr, ptr, i32, ptr, ptr, ptr, ptr, ptr, ptr, i64, i32, i32, i32, i32, i32, i64, ptr, ptr, ptr, ptr, i32, i32, ptr, ptr, ptr, i32, ptr, i64, i64 }

@.str.4 = private unnamed_addr constant [30 x i8] c"SWF compressed file detected\0A\00", align 1
@.str.5 = private unnamed_addr constant [4 x i8] c"1.3\00", align 1
@.str.6 = private unnamed_addr constant [29 x i8] c"Unable to init zlib context\0A\00", align 1

; Function Attrs: nounwind uwtable
define internal i32 @swf_read_header(ptr noundef %0) #0 {
  %2 = alloca i32, align 4
  %3 = alloca ptr, align 8
  %4 = alloca ptr, align 8
  %5 = alloca ptr, align 8
  %6 = alloca i32, align 4
  %7 = alloca i32, align 4
  %8 = alloca i32, align 4
  %9 = alloca i32, align 4
  store ptr %0, ptr %3, align 8, !tbaa !16
  call void @llvm.lifetime.start.p0(i64 8, ptr %4) #10
  %10 = load ptr, ptr %3, align 8, !tbaa !16
  %11 = getelementptr inbounds nuw %struct.AVFormatContext, ptr %10, i32 0, i32 3
  %12 = load ptr, ptr %11, align 8, !tbaa !18
  store ptr %12, ptr %4, align 8, !tbaa !33
  call void @llvm.lifetime.start.p0(i64 8, ptr %5) #10
  %13 = load ptr, ptr %3, align 8, !tbaa !16
  %14 = getelementptr inbounds nuw %struct.AVFormatContext, ptr %13, i32 0, i32 4
  %15 = load ptr, ptr %14, align 8, !tbaa !35
  store ptr %15, ptr %5, align 8, !tbaa !36
  call void @llvm.lifetime.start.p0(i64 4, ptr %6) #10
  call void @llvm.lifetime.start.p0(i64 4, ptr %7) #10
  call void @llvm.lifetime.start.p0(i64 4, ptr %8) #10
  %16 = load ptr, ptr %5, align 8, !tbaa !36
  %17 = call i32 @avio_rb32(ptr noundef %16)
  %18 = and i32 %17, -256
  store i32 %18, ptr %8, align 4, !tbaa !15
  %19 = load ptr, ptr %5, align 8, !tbaa !36
  %20 = call i32 @avio_rl32(ptr noundef %19)
  %21 = load i32, ptr %8, align 4, !tbaa !15
  %22 = icmp eq i32 %21, 1129796352
  br i1 %22, label %23, label %61

23:                                               ; preds = %1
  %24 = load ptr, ptr %3, align 8, !tbaa !16
  call void (ptr, i32, ptr, ...) @av_log(ptr noundef %24, i32 noundef 32, ptr noundef @.str.4)
  %25 = load ptr, ptr %4, align 8, !tbaa !33
  %26 = getelementptr inbounds nuw %struct.SWFDecContext, ptr %25, i32 0, i32 5
  %27 = call i32 @inflateInit_(ptr noundef %26, ptr noundef @.str.5, i32 noundef 112)
  %28 = icmp ne i32 %27, 0
  br i1 %28, label %29, label %31

29:                                               ; preds = %23
  %30 = load ptr, ptr %3, align 8, !tbaa !16
  call void (ptr, i32, ptr, ...) @av_log(ptr noundef %30, i32 noundef 16, ptr noundef @.str.6)
  store i32 -22, ptr %2, align 4
  store i32 1, ptr %9, align 4
  br label %91

31:                                               ; preds = %23
  %32 = call noalias ptr @av_malloc(i64 noundef 4096)
  %33 = load ptr, ptr %4, align 8, !tbaa !33
  %34 = getelementptr inbounds nuw %struct.SWFDecContext, ptr %33, i32 0, i32 3
  store ptr %32, ptr %34, align 8, !tbaa !37
  %35 = icmp ne ptr %32, null
  br i1 %35, label %36, label %50

36:                                               ; preds = %31
  %37 = call noalias ptr @av_malloc(i64 noundef 4096)
  %38 = load ptr, ptr %4, align 8, !tbaa !33
  %39 = getelementptr inbounds nuw %struct.SWFDecContext, ptr %38, i32 0, i32 4
  store ptr %37, ptr %39, align 8, !tbaa !41
  %40 = icmp ne ptr %37, null
  br i1 %40, label %41, label %50

41:                                               ; preds = %36
  %42 = load ptr, ptr %4, align 8, !tbaa !33
  %43 = getelementptr inbounds nuw %struct.SWFDecContext, ptr %42, i32 0, i32 4
  %44 = load ptr, ptr %43, align 8, !tbaa !41
  %45 = load ptr, ptr %3, align 8, !tbaa !16
  %46 = call ptr @avio_alloc_context(ptr noundef %44, i32 noundef 4096, i32 noundef 0, ptr noundef %45, ptr noundef @zlib_refill, ptr noundef null, ptr noundef null)
  %47 = load ptr, ptr %4, align 8, !tbaa !33
  %48 = getelementptr inbounds nuw %struct.SWFDecContext, ptr %47, i32 0, i32 2
  store ptr %46, ptr %48, align 8, !tbaa !42
  %49 = icmp ne ptr %46, null
  br i1 %49, label %53, label %50

50:                                               ; preds = %41, %36, %31
  %51 = load ptr, ptr %3, align 8, !tbaa !16
  %52 = call i32 @swf_read_close(ptr noundef %51) #11
  store i32 -12, ptr %2, align 4
  store i32 1, ptr %9, align 4
  br label %91

53:                                               ; preds = %41
  %54 = load ptr, ptr %4, align 8, !tbaa !33
  %55 = getelementptr inbounds nuw %struct.SWFDecContext, ptr %54, i32 0, i32 2
  %56 = load ptr, ptr %55, align 8, !tbaa !42
  %57 = getelementptr inbounds nuw %struct.AVIOContext, ptr %56, i32 0, i32 20
  store i32 0, ptr %57, align 8, !tbaa !43
  %58 = load ptr, ptr %4, align 8, !tbaa !33
  %59 = getelementptr inbounds nuw %struct.SWFDecContext, ptr %58, i32 0, i32 2
  %60 = load ptr, ptr %59, align 8, !tbaa !42
  store ptr %60, ptr %5, align 8, !tbaa !36
  br label %66

61:                                               ; preds = %1
  %62 = load i32, ptr %8, align 4, !tbaa !15
  %63 = icmp ne i32 %62, 1180128000
  br i1 %63, label %64, label %65

64:                                               ; preds = %61
  store i32 -5, ptr %2, align 4
  store i32 1, ptr %9, align 4
  br label %91

65:                                               ; preds = %61
  br label %66

66:                                               ; preds = %65, %53
  %67 = load ptr, ptr %5, align 8, !tbaa !36
  %68 = call i32 @avio_r8(ptr noundef %67)
  %69 = ashr i32 %68, 3
  store i32 %69, ptr %6, align 4, !tbaa !15
  %70 = load i32, ptr %6, align 4, !tbaa !15
  %71 = mul nsw i32 4, %70
  %72 = sub nsw i32 %71, 3
  %73 = add nsw i32 %72, 7
  %74 = sdiv i32 %73, 8
  store i32 %74, ptr %7, align 4, !tbaa !15
  %75 = load ptr, ptr %5, align 8, !tbaa !36
  %76 = load i32, ptr %7, align 4, !tbaa !15
  %77 = sext i32 %76 to i64
  %78 = call i64 @avio_skip(ptr noundef %75, i64 noundef %77)
  %79 = load ptr, ptr %5, align 8, !tbaa !36
  %80 = call i32 @avio_rl16(ptr noundef %79)
  %81 = load ptr, ptr %4, align 8, !tbaa !33
  %82 = getelementptr inbounds nuw %struct.SWFDecContext, ptr %81, i32 0, i32 1
  store i32 %80, ptr %82, align 4, !tbaa !45
  %83 = load ptr, ptr %5, align 8, !tbaa !36
  %84 = call i32 @avio_rl16(ptr noundef %83)
  %85 = load ptr, ptr %4, align 8, !tbaa !33
  %86 = getelementptr inbounds nuw %struct.SWFDecContext, ptr %85, i32 0, i32 0
  store i32 0, ptr %86, align 8, !tbaa !46
  %87 = load ptr, ptr %3, align 8, !tbaa !16
  %88 = getelementptr inbounds nuw %struct.AVFormatContext, ptr %87, i32 0, i32 5
  %89 = load i32, ptr %88, align 8, !tbaa !47
  %90 = or i32 %89, 1
  store i32 %90, ptr %88, align 8, !tbaa !47
  store i32 0, ptr %2, align 4
  store i32 1, ptr %9, align 4
  br label %91

91:                                               ; preds = %66, %64, %50, %29
  call void @llvm.lifetime.end.p0(i64 4, ptr %8) #10
  call void @llvm.lifetime.end.p0(i64 4, ptr %7) #10
  call void @llvm.lifetime.end.p0(i64 4, ptr %6) #10
  call void @llvm.lifetime.end.p0(i64 8, ptr %5) #10
  call void @llvm.lifetime.end.p0(i64 8, ptr %4) #10
  %92 = load i32, ptr %2, align 4
  ret i32 %92
}