; Function Attrs: nounwind uwtable
define internal range(i32 -22, 1) i32 @swf_read_header(ptr noundef %0) #1 {
  %2 = getelementptr inbounds nuw i8, ptr %0, i64 24
  %3 = load ptr, ptr %2, align 8, !tbaa !13
  %4 = getelementptr inbounds nuw i8, ptr %0, i64 32
  %5 = load ptr, ptr %4, align 8, !tbaa !28
  %6 = tail call i32 @avio_rb32(ptr noundef %5) #9
  %7 = and i32 %6, -256
  %8 = tail call i32 @avio_rl32(ptr noundef %5) #9
  switch i32 %7, label %40 [
    i32 1129796352, label %9
    i32 1180128000, label %26
  ]

9:                                                ; preds = %1
  tail call void (ptr, i32, ptr, ...) @av_log(ptr noundef nonnull %0, i32 noundef 32, ptr noundef nonnull @.str.4) #9
  %10 = getelementptr inbounds nuw i8, ptr %3, i64 32
  %11 = tail call i32 @inflateInit_(ptr noundef nonnull %10, ptr noundef nonnull @.str.5, i32 noundef 112) #9
  %.not30 = icmp eq i32 %11, 0
  br i1 %.not30, label %13, label %12

12:                                               ; preds = %9
  tail call void (ptr, i32, ptr, ...) @av_log(ptr noundef nonnull %0, i32 noundef 16, ptr noundef nonnull @.str.6) #9
  br label %40

13:                                               ; preds = %9
  %14 = tail call noalias ptr @av_malloc(i64 noundef 4096) #9
  %15 = getelementptr inbounds nuw i8, ptr %3, i64 16
  store ptr %14, ptr %15, align 8, !tbaa !29
  %.not31 = icmp eq ptr %14, null
  br i1 %.not31, label %22, label %16

16:                                               ; preds = %13
  %17 = tail call noalias ptr @av_malloc(i64 noundef 4096) #9
  %18 = getelementptr inbounds nuw i8, ptr %3, i64 24
  store ptr %17, ptr %18, align 8, !tbaa !33
  %.not32 = icmp eq ptr %17, null
  br i1 %.not32, label %22, label %19

19:                                               ; preds = %16
  %20 = tail call ptr @avio_alloc_context(ptr noundef nonnull %17, i32 noundef 4096, i32 noundef 0, ptr noundef nonnull %0, ptr noundef nonnull @zlib_refill, ptr noundef null, ptr noundef null) #9
  %21 = getelementptr inbounds nuw i8, ptr %3, i64 8
  store ptr %20, ptr %21, align 8, !tbaa !34
  %.not33 = icmp eq ptr %20, null
  br i1 %.not33, label %22, label %24

22:                                               ; preds = %19, %16, %13
  %23 = tail call i32 @swf_read_close(ptr noundef nonnull %0) #10
  br label %40

24:                                               ; preds = %19
  %25 = getelementptr inbounds nuw i8, ptr %20, i64 144
  store i32 0, ptr %25, align 8, !tbaa !35
  br label %26

26:                                               ; preds = %1, %24
  %.026 = phi ptr [ %20, %24 ], [ %5, %1 ]
  %27 = tail call i32 @avio_r8(ptr noundef %.026) #9
  %28 = ashr i32 %27, 1
  %29 = and i32 %28, -4
  %30 = add nsw i32 %29, 4
  %31 = sdiv i32 %30, 8
  %32 = sext i32 %31 to i64
  %33 = tail call i64 @avio_skip(ptr noundef %.026, i64 noundef %32) #9
  %34 = tail call i32 @avio_rl16(ptr noundef %.026) #9
  %35 = getelementptr inbounds nuw i8, ptr %3, i64 4
  store i32 %34, ptr %35, align 4, !tbaa !37
  %36 = tail call i32 @avio_rl16(ptr noundef %.026) #9
  store i32 0, ptr %3, align 8, !tbaa !38
  %37 = getelementptr inbounds nuw i8, ptr %0, i64 40
  %38 = load i32, ptr %37, align 8, !tbaa !39
  %39 = or i32 %38, 1
  store i32 %39, ptr %37, align 8, !tbaa !39
  br label %40

40:                                               ; preds = %1, %26, %22, %12
  %.0 = phi i32 [ -22, %12 ], [ 0, %26 ], [ -12, %22 ], [ -5, %1 ]
  ret i32 %.0
}